; Function Attrs: mustprogress nofree norecurse nosync nounwind willreturn memory(argmem: readwrite, inaccessiblemem: write) uwtable
define internal noundef nonnull ptr @_ZN6evmone8advanced12_GLOBAL__N_12opIXadL_ZNS0_5instr4implILNS_6OpcodeE80EXadL_ZNS_5instr4core4noopENS_8StackTopEEEEEvRNS0_22AdvancedExecutionStateEEEEEPKNS0_11InstructionESD_SA_(ptr noundef readnone captures(ret: address, provenance) %0, ptr noundef nonnull align 8 captures(none) dereferenceable(564) %1) #7 {
  %3 = getelementptr inbounds nuw i8, ptr %1, i64 552
  %4 = load ptr, ptr %3, align 8, !tbaa !67
  %5 = getelementptr inbounds i8, ptr %4, i64 -32
  call void @llvm.assume(i1 true) [ "align"(ptr %5, i64 32) ]
  %6 = ptrtoint ptr %5 to i64
  store i64 %6, ptr %3, align 8, !tbaa !57
  %7 = getelementptr inbounds nuw i8, ptr %0, i64 16
  ret ptr %7
}